; Function Attrs: nofree nounwind memory(read, argmem: readwrite, inaccessiblemem: none) uwtable
define void @CORD_prev(ptr noundef captures(none) %0) local_unnamed_addr #11 {
  %2 = getelementptr inbounds nuw i8, ptr %0, i64 32
  %3 = load i64, ptr %2, align 8, !tbaa !57
  %.not = icmp eq i64 %3, 0
  %.pr = load i64, ptr %0, align 8, !tbaa !52
  br i1 %.not, label %thread-pre-split, label %4

4:                                                ; preds = %1
  %5 = getelementptr inbounds nuw i8, ptr %0, i64 24
  %6 = load i64, ptr %5, align 8, !tbaa !55
  %7 = icmp ugt i64 %.pr, %6
  br i1 %7, label %8, label %thread-pre-split

8:                                                ; preds = %4
  %9 = add i64 %.pr, -1
  store i64 %9, ptr %0, align 8, !tbaa !52
  br label %CORD__prev.exit

thread-pre-split:                                 ; preds = %1, %4
  %10 = getelementptr inbounds nuw i8, ptr %0, i64 40
  %11 = getelementptr inbounds nuw i8, ptr %0, i64 8
  %12 = icmp eq i64 %.pr, 0
  br i1 %12, label %13, label %14

13:                                               ; preds = %thread-pre-split
  store i32 1431655765, ptr %11, align 8, !tbaa !47
  br label %CORD__prev.exit

14:                                               ; preds = %thread-pre-split
  %15 = load i32, ptr %11, align 8, !tbaa !47
  %16 = sext i32 %15 to i64
  %17 = add i64 %.pr, -1
  store i64 %17, ptr %0, align 8, !tbaa !52
  %.idx.i = shl nsw i64 %16, 4
  %.offs.i = or disjoint i64 %.idx.i, 8
  %18 = getelementptr inbounds i8, ptr %10, i64 %.offs.i
  %19 = load i64, ptr %18, align 8, !tbaa !53
  %.not.i = icmp ult i64 %17, %19
  br i1 %.not.i, label %20, label %CORD__prev.exit

20:                                               ; preds = %14
  %21 = icmp sgt i32 %15, 0
  br i1 %21, label %.lr.ph.preheader.i, label %.critedge.i

.lr.ph.preheader.i:                               ; preds = %20
  %22 = getelementptr inbounds nuw [49 x %struct.CORD_pe], ptr %10, i64 0, i64 %16
  br label %.lr.ph.i

.lr.ph.i:                                         ; preds = %29, %.lr.ph.preheader.i
  %.018.i = phi ptr [ %30, %29 ], [ %22, %.lr.ph.preheader.i ]
  %23 = phi i32 [ %31, %29 ], [ %15, %.lr.ph.preheader.i ]
  %24 = getelementptr inbounds nuw i8, ptr %.018.i, i64 8
  %25 = load i64, ptr %24, align 8, !tbaa !53
  %26 = getelementptr inbounds i8, ptr %.018.i, i64 -8
  %27 = load i64, ptr %26, align 8, !tbaa !53
  %28 = icmp eq i64 %25, %27
  br i1 %28, label %29, label %.critedge.i

29:                                               ; preds = %.lr.ph.i
  %30 = getelementptr inbounds i8, ptr %.018.i, i64 -16
  %31 = add nsw i32 %23, -1
  %32 = icmp sgt i32 %23, 1
  br i1 %32, label %.lr.ph.i, label %.critedge.i, !llvm.loop !61

.critedge.i:                                      ; preds = %29, %.lr.ph.i, %20
  %.lcssa.i = phi i32 [ %15, %20 ], [ %23, %.lr.ph.i ], [ 0, %29 ]
  %33 = add nsw i32 %.lcssa.i, -1
  store i32 %33, ptr %11, align 8, !tbaa !47
  tail call fastcc void @CORD_extend_path(ptr noundef nonnull %0)
  br label %CORD__prev.exit

CORD__prev.exit:                                  ; preds = %.critedge.i, %14, %13, %8
  ret void
}